; ModuleID = 'source-C-CXX/2/848.c'
source_filename = "source-C-CXX/2/848.c"
target datalayout = "e-m:e-p270:32:32-p271:32:32-p272:64:64-i64:64-f80:128-n8:16:32:64-S128"
target triple = "x86_64-pc-linux-gnu"

@.str = private unnamed_addr constant [6 x i8] c"%d %d\00", align 1
@.str.1 = private unnamed_addr constant [3 x i8] c"%d\00", align 1
@.str.2 = private unnamed_addr constant [4 x i8] c"yes\00", align 1
@.str.3 = private unnamed_addr constant [3 x i8] c"no\00", align 1

; Function Attrs: nofree nounwind sspstrong uwtable
define dso_local i32 @main() local_unnamed_addr #0 {
  %1 = alloca i32, align 4
  %2 = alloca i32, align 4
  %3 = alloca [1000 x i32], align 16
  %4 = bitcast i32* %1 to i8*
  call void @llvm.lifetime.start.p0i8(i64 4, i8* nonnull %4) #4
  %5 = bitcast i32* %2 to i8*
  call void @llvm.lifetime.start.p0i8(i64 4, i8* nonnull %5) #4
  %6 = bitcast [1000 x i32]* %3 to i8*
  call void @llvm.lifetime.start.p0i8(i64 4000, i8* nonnull %6) #4
  %7 = call i32 (i8*, ...) @__isoc99_scanf(i8* getelementptr inbounds ([6 x i8], [6 x i8]* @.str, i64 0, i64 0), i32* nonnull %1, i32* nonnull %2)
  %8 = load i32, i32* %1, align 4, !tbaa !5
  %9 = icmp sgt i32 %8, 0
  br i1 %9, label %16, label %10

10:                                               ; preds = %16, %0
  %11 = phi i32 [ %8, %0 ], [ %21, %16 ]
  %12 = add i32 %11, -1
  %13 = load i32, i32* %2, align 4
  %14 = call i32 @llvm.smax.i32(i32 %12, i32 0)
  %15 = zext i32 %14 to i64
  br label %24

16:                                               ; preds = %0, %16
  %17 = phi i64 [ %20, %16 ], [ 0, %0 ]
  %18 = getelementptr inbounds [1000 x i32], [1000 x i32]* %3, i64 0, i64 %17
  %19 = call i32 (i8*, ...) @__isoc99_scanf(i8* getelementptr inbounds ([3 x i8], [3 x i8]* @.str.1, i64 0, i64 0), i32* nonnull %18)
  %20 = add nuw nsw i64 %17, 1
  %21 = load i32, i32* %1, align 4, !tbaa !5
  %22 = sext i32 %21 to i64
  %23 = icmp slt i64 %20, %22
  br i1 %23, label %16, label %10, !llvm.loop !9

24:                                               ; preds = %10, %47
  %25 = phi i64 [ 0, %10 ], [ %29, %47 ]
  %26 = phi i64 [ 1, %10 ], [ %50, %47 ]
  %27 = icmp eq i64 %25, %15
  br i1 %27, label %53, label %28

28:                                               ; preds = %24
  %29 = add nuw nsw i64 %25, 1
  %30 = trunc i64 %29 to i32
  %31 = icmp sgt i32 %11, %30
  br i1 %31, label %32, label %47

32:                                               ; preds = %28
  %33 = getelementptr inbounds [1000 x i32], [1000 x i32]* %3, i64 0, i64 %25
  %34 = load i32, i32* %33, align 4, !tbaa !5
  br label %35

35:                                               ; preds = %32, %41
  %36 = phi i64 [ %26, %32 ], [ %42, %41 ]
  %37 = getelementptr inbounds [1000 x i32], [1000 x i32]* %3, i64 0, i64 %36
  %38 = load i32, i32* %37, align 4, !tbaa !5
  %39 = add nsw i32 %38, %34
  %40 = icmp eq i32 %39, %13
  br i1 %40, label %45, label %41

41:                                               ; preds = %35
  %42 = add nuw nsw i64 %36, 1
  %43 = trunc i64 %42 to i32
  %44 = icmp eq i32 %11, %43
  br i1 %44, label %47, label %35, !llvm.loop !11

45:                                               ; preds = %35
  %46 = trunc i64 %36 to i32
  br label %47

47:                                               ; preds = %41, %45, %28
  %48 = phi i32 [ %30, %28 ], [ %46, %45 ], [ %11, %41 ]
  %49 = icmp eq i32 %48, %11
  %50 = add nuw nsw i64 %26, 1
  br i1 %49, label %24, label %51, !llvm.loop !12

51:                                               ; preds = %47
  %52 = trunc i64 %25 to i32
  br label %53

53:                                               ; preds = %24, %51
  %54 = phi i32 [ %52, %51 ], [ %14, %24 ]
  %55 = icmp eq i32 %54, %12
  %56 = select i1 %55, i8* getelementptr inbounds ([3 x i8], [3 x i8]* @.str.3, i64 0, i64 0), i8* getelementptr inbounds ([4 x i8], [4 x i8]* @.str.2, i64 0, i64 0)
  %57 = call i32 (i8*, ...) @printf(i8* nonnull dereferenceable(1) %56)
  call void @llvm.lifetime.end.p0i8(i64 4000, i8* nonnull %6) #4
  call void @llvm.lifetime.end.p0i8(i64 4, i8* nonnull %5) #4
  call void @llvm.lifetime.end.p0i8(i64 4, i8* nonnull %4) #4
  ret i32 0
}

; Function Attrs: argmemonly mustprogress nofree nosync nounwind willreturn
declare void @llvm.lifetime.start.p0i8(i64 immarg, i8* nocapture) #1

; Function Attrs: nofree nounwind
declare noundef i32 @__isoc99_scanf(i8* nocapture noundef readonly, ...) local_unnamed_addr #2

; Function Attrs: nofree nounwind
declare noundef i32 @printf(i8* nocapture noundef readonly, ...) local_unnamed_addr #2

; Function Attrs: argmemonly mustprogress nofree nosync nounwind willreturn
declare void @llvm.lifetime.end.p0i8(i64 immarg, i8* nocapture) #1

; Function Attrs: nofree nosync nounwind readnone speculatable willreturn
declare i32 @llvm.smax.i32(i32, i32) #3


!llvm.module.flags = !{!0, !1, !2, !3}
!llvm.ident = !{!4}

!0 = !{i32 1, !"wchar_size", i32 4}
!1 = !{i32 7, !"PIC Level", i32 2}
!2 = !{i32 7, !"PIE Level", i32 2}
!3 = !{i32 7, !"uwtable", i32 1}
!4 = !{!"clang version 13.0.0"}
!5 = !{!6, !6, i64 0}
!6 = !{!"int", !7, i64 0}
!7 = !{!"omnipotent char", !8, i64 0}
!8 = !{!"Simple C/C++ TBAA"}
!9 = distinct !{!9, !10}
!10 = !{!"llvm.loop.mustprogress"}
!11 = distinct !{!11, !10}
!12 = distinct !{!12, !10}
